; Function Attrs: mustprogress nounwind uwtable
define dso_local void @_ZN4llvm10AsmPrinter18emitTTypeReferenceEPKNS_11GlobalValueEj(ptr noundef nonnull align 8 dereferenceable(785) %0, ptr noundef %1, i32 noundef %2) unnamed_addr #0 align 2 {
  %.not = icmp eq ptr %1, null
  br i1 %.not, label %28, label %4

4:                                                ; preds = %3
  %5 = tail call noundef nonnull align 8 dereferenceable(968) ptr @_ZNK4llvm10AsmPrinter18getObjFileLoweringEv(ptr noundef nonnull align 8 dereferenceable(785) %0) #6
  %6 = getelementptr inbounds nuw i8, ptr %0, i64 56
  %7 = load ptr, ptr %6, align 8
  %8 = getelementptr inbounds nuw i8, ptr %0, i64 96
  %9 = load ptr, ptr %8, align 8
  %10 = getelementptr inbounds nuw i8, ptr %0, i64 80
  %11 = load ptr, ptr %10, align 8
  %12 = load ptr, ptr %5, align 8
  %13 = getelementptr inbounds i8, ptr %12, i64 120
  %14 = load ptr, ptr %13, align 8
  %15 = tail call noundef ptr %14(ptr noundef nonnull align 8 dereferenceable(968) %5, ptr noundef nonnull %1, i32 noundef %2, ptr noundef nonnull align 1 %7, ptr noundef %9, ptr noundef nonnull align 8 dereferenceable(288) %11) #6
  %16 = load ptr, ptr %10, align 8
  %17 = icmp eq i32 %2, 255
  br i1 %17, label %_ZNK4llvm10AsmPrinter21GetSizeOfEncodedValueEj.exit, label %18

18:                                               ; preds = %4
  %19 = and i32 %2, 7
  switch i32 %19, label %20 [
    i32 0, label %21
    i32 2, label %_ZNK4llvm10AsmPrinter21GetSizeOfEncodedValueEj.exit
    i32 3, label %26
    i32 4, label %27
  ]

20:                                               ; preds = %18
  unreachable

21:                                               ; preds = %18
  %22 = getelementptr inbounds nuw i8, ptr %0, i64 64
  %23 = load ptr, ptr %22, align 8
  %24 = getelementptr inbounds nuw i8, ptr %23, i64 8
  %25 = load i32, ptr %24, align 8
  br label %_ZNK4llvm10AsmPrinter21GetSizeOfEncodedValueEj.exit

26:                                               ; preds = %18
  br label %_ZNK4llvm10AsmPrinter21GetSizeOfEncodedValueEj.exit

27:                                               ; preds = %18
  br label %_ZNK4llvm10AsmPrinter21GetSizeOfEncodedValueEj.exit

_ZNK4llvm10AsmPrinter21GetSizeOfEncodedValueEj.exit: ; preds = %4, %18, %21, %26, %27
  %.0.i = phi i32 [ 8, %27 ], [ 4, %26 ], [ %25, %21 ], [ 0, %4 ], [ %19, %18 ]
  tail call void @_ZN4llvm10MCStreamer9emitValueEPKNS_6MCExprEjNS_5SMLocE(ptr noundef nonnull align 8 dereferenceable(288) %16, ptr noundef %15, i32 noundef %.0.i, ptr null) #6
  br label %45

28:                                               ; preds = %3
  %29 = getelementptr inbounds nuw i8, ptr %0, i64 80
  %30 = load ptr, ptr %29, align 8
  %31 = icmp eq i32 %2, 255
  br i1 %31, label %_ZNK4llvm10AsmPrinter21GetSizeOfEncodedValueEj.exit8, label %32

32:                                               ; preds = %28
  %33 = and i32 %2, 7
  switch i32 %33, label %34 [
    i32 0, label %35
    i32 2, label %_ZNK4llvm10AsmPrinter21GetSizeOfEncodedValueEj.exit8
    i32 3, label %40
    i32 4, label %41
  ]

34:                                               ; preds = %32
  unreachable

35:                                               ; preds = %32
  %36 = getelementptr inbounds nuw i8, ptr %0, i64 64
  %37 = load ptr, ptr %36, align 8
  %38 = getelementptr inbounds nuw i8, ptr %37, i64 8
  %39 = load i32, ptr %38, align 8
  br label %_ZNK4llvm10AsmPrinter21GetSizeOfEncodedValueEj.exit8

40:                                               ; preds = %32
  br label %_ZNK4llvm10AsmPrinter21GetSizeOfEncodedValueEj.exit8

41:                                               ; preds = %32
  br label %_ZNK4llvm10AsmPrinter21GetSizeOfEncodedValueEj.exit8

_ZNK4llvm10AsmPrinter21GetSizeOfEncodedValueEj.exit8: ; preds = %28, %32, %35, %40, %41
  %.0.i7 = phi i32 [ 8, %41 ], [ 4, %40 ], [ %39, %35 ], [ 0, %28 ], [ %33, %32 ]
  %42 = load ptr, ptr %30, align 8
  %43 = getelementptr inbounds i8, ptr %42, i64 520
  %44 = load ptr, ptr %43, align 8
  tail call void %44(ptr noundef nonnull align 8 dereferenceable(288) %30, i64 noundef 0, i32 noundef %.0.i7) #6
  br label %45

45:                                               ; preds = %_ZNK4llvm10AsmPrinter21GetSizeOfEncodedValueEj.exit8, %_ZNK4llvm10AsmPrinter21GetSizeOfEncodedValueEj.exit
  ret void
}